target datalayout = "e-m:e-p270:32:32-p271:32:32-p272:64:64-i64:64-i128:128-f80:128-n8:16:32:64-S128"
target triple = "x86_64-unknown-linux-gnu"

%"class.std::basic_string_view" = type { i64, ptr }
%"struct.google::protobuf::io::Printer::PrintOptions" = type { %"class.std::optional", i8, i8, i8, i8, i8, i8, i8 }
%"class.std::optional" = type { %"struct.std::_Optional_base" }
%"struct.std::_Optional_base" = type { %"struct.std::_Optional_payload" }
%"struct.std::_Optional_payload" = type { %"struct.std::_Optional_payload_base" }
%"struct.std::_Optional_payload_base" = type { %"union.std::_Optional_payload_base<google::protobuf::io::Printer::SourceLocation>::_Storage", i8 }
%"union.std::_Optional_payload_base<google::protobuf::io::Printer::SourceLocation>::_Storage" = type { %"struct.std::_Optional_payload_base<google::protobuf::io::Printer::SourceLocation>::_Empty_byte" }
%"struct.std::_Optional_payload_base<google::protobuf::io::Printer::SourceLocation>::_Empty_byte" = type { i8 }
%"class.google::protobuf::io::Printer" = type { %"class.google::protobuf::io::zc_sink_internal::ZeroCopyStreamByteSink", %"struct.google::protobuf::io::Printer::Options", i64, i8, i8, i64, %"class.std::vector.6", %"class.std::vector.11", %"class.std::vector.16", %"class.absl::lts_20230802::flat_hash_map", %"class.std::vector.31" }
%"class.google::protobuf::io::zc_sink_internal::ZeroCopyStreamByteSink" = type <{ ptr, ptr, i64, i64, i8, [7 x i8] }>
%"struct.google::protobuf::io::Printer::Options" = type <{ i8, [7 x i8], ptr, %"class.std::basic_string_view", %"class.std::basic_string_view", i64, %"class.std::optional.0", [6 x i8] }>
%"class.std::optional.0" = type { %"struct.std::_Optional_base.1" }
%"struct.std::_Optional_base.1" = type { %"struct.std::_Optional_payload.3" }
%"struct.std::_Optional_payload.3" = type { %"struct.std::_Optional_payload_base.4" }
%"struct.std::_Optional_payload_base.4" = type { %"union.std::_Optional_payload_base<bool>::_Storage", i8 }
%"union.std::_Optional_payload_base<bool>::_Storage" = type { %"struct.std::_Optional_payload_base<bool>::_Empty_byte" }
%"struct.std::_Optional_payload_base<bool>::_Empty_byte" = type { i8 }
%"class.std::vector.6" = type { %"struct.std::_Vector_base.7" }
%"struct.std::_Vector_base.7" = type { %"struct.std::_Vector_base<unsigned long, std::allocator<unsigned long>>::_Vector_impl" }
%"struct.std::_Vector_base<unsigned long, std::allocator<unsigned long>>::_Vector_impl" = type { %"struct.std::_Vector_base<unsigned long, std::allocator<unsigned long>>::_Vector_impl_data" }
%"struct.std::_Vector_base<unsigned long, std::allocator<unsigned long>>::_Vector_impl_data" = type { ptr, ptr, ptr }
%"class.std::vector.11" = type { %"struct.std::_Vector_base.12" }
%"struct.std::_Vector_base.12" = type { %"struct.std::_Vector_base<std::function<std::optional<google::protobuf::io::Printer::ValueImpl<false>> (std::basic_string_view<char>)>, std::allocator<std::function<std::optional<google::protobuf::io::Printer::ValueImpl<false>> (std::basic_string_view<char>)>>>::_Vector_impl" }
%"struct.std::_Vector_base<std::function<std::optional<google::protobuf::io::Printer::ValueImpl<false>> (std::basic_string_view<char>)>, std::allocator<std::function<std::optional<google::protobuf::io::Printer::ValueImpl<false>> (std::basic_string_view<char>)>>>::_Vector_impl" = type { %"struct.std::_Vector_base<std::function<std::optional<google::protobuf::io::Printer::ValueImpl<false>> (std::basic_string_view<char>)>, std::allocator<std::function<std::optional<google::protobuf::io::Printer::ValueImpl<false>> (std::basic_string_view<char>)>>>::_Vector_impl_data" }
%"struct.std::_Vector_base<std::function<std::optional<google::protobuf::io::Printer::ValueImpl<false>> (std::basic_string_view<char>)>, std::allocator<std::function<std::optional<google::protobuf::io::Printer::ValueImpl<false>> (std::basic_string_view<char>)>>>::_Vector_impl_data" = type { ptr, ptr, ptr }
%"class.std::vector.16" = type { %"struct.std::_Vector_base.17" }
%"struct.std::_Vector_base.17" = type { %"struct.std::_Vector_base<std::function<std::optional<google::protobuf::io::Printer::AnnotationRecord> (std::basic_string_view<char>)>, std::allocator<std::function<std::optional<google::protobuf::io::Printer::AnnotationRecord> (std::basic_string_view<char>)>>>::_Vector_impl" }
%"struct.std::_Vector_base<std::function<std::optional<google::protobuf::io::Printer::AnnotationRecord> (std::basic_string_view<char>)>, std::allocator<std::function<std::optional<google::protobuf::io::Printer::AnnotationRecord> (std::basic_string_view<char>)>>>::_Vector_impl" = type { %"struct.std::_Vector_base<std::function<std::optional<google::protobuf::io::Printer::AnnotationRecord> (std::basic_string_view<char>)>, std::allocator<std::function<std::optional<google::protobuf::io::Printer::AnnotationRecord> (std::basic_string_view<char>)>>>::_Vector_impl_data" }
%"struct.std::_Vector_base<std::function<std::optional<google::protobuf::io::Printer::AnnotationRecord> (std::basic_string_view<char>)>, std::allocator<std::function<std::optional<google::protobuf::io::Printer::AnnotationRecord> (std::basic_string_view<char>)>>>::_Vector_impl_data" = type { ptr, ptr, ptr }
%"class.absl::lts_20230802::flat_hash_map" = type { %"class.absl::lts_20230802::container_internal::raw_hash_map" }
%"class.absl::lts_20230802::container_internal::raw_hash_map" = type { %"class.absl::lts_20230802::container_internal::raw_hash_set" }
%"class.absl::lts_20230802::container_internal::raw_hash_set" = type { %"class.absl::lts_20230802::container_internal::CompressedTuple" }
%"class.absl::lts_20230802::container_internal::CompressedTuple" = type { %"struct.absl::lts_20230802::container_internal::internal_compressed_tuple::CompressedTupleImpl" }
%"struct.absl::lts_20230802::container_internal::internal_compressed_tuple::CompressedTupleImpl" = type { %"struct.absl::lts_20230802::container_internal::internal_compressed_tuple::Storage" }
%"struct.absl::lts_20230802::container_internal::internal_compressed_tuple::Storage" = type { %"class.absl::lts_20230802::container_internal::CommonFields" }
%"class.absl::lts_20230802::container_internal::CommonFields" = type { ptr, ptr, i64, %"class.absl::lts_20230802::container_internal::CompressedTuple.21" }
%"class.absl::lts_20230802::container_internal::CompressedTuple.21" = type { %"struct.absl::lts_20230802::container_internal::internal_compressed_tuple::CompressedTupleImpl.22" }
%"struct.absl::lts_20230802::container_internal::internal_compressed_tuple::CompressedTupleImpl.22" = type { %"struct.absl::lts_20230802::container_internal::internal_compressed_tuple::Storage.23" }
%"struct.absl::lts_20230802::container_internal::internal_compressed_tuple::Storage.23" = type { i64 }
%"class.std::vector.31" = type { %"struct.std::_Vector_base.32" }
%"struct.std::_Vector_base.32" = type { %"struct.std::_Vector_base<std::__cxx11::basic_string<char>, std::allocator<std::__cxx11::basic_string<char>>>::_Vector_impl" }
%"struct.std::_Vector_base<std::__cxx11::basic_string<char>, std::allocator<std::__cxx11::basic_string<char>>>::_Vector_impl" = type { %"struct.std::_Vector_base<std::__cxx11::basic_string<char>, std::allocator<std::__cxx11::basic_string<char>>>::_Vector_impl_data" }
%"struct.std::_Vector_base<std::__cxx11::basic_string<char>, std::allocator<std::__cxx11::basic_string<char>>>::_Vector_impl_data" = type { ptr, ptr, ptr }

@.str.9 = private unnamed_addr constant [36 x i8] c"Outdent() without matching Indent()\00", align 1

; Function Attrs: mustprogress nounwind uwtable
define linkonce_odr hidden void @_ZNSt22_Optional_payload_baseIN6google8protobuf2io7Printer14SourceLocationEE8_StorageIS4_Lb1EEC2Ev(ptr noundef nonnull align 1 dereferenceable(1) %this) unnamed_addr #5 comdat align 2 {
entry:
  %this.addr = alloca ptr, align 8
  store ptr %this, ptr %this.addr, align 8
  ret void
}

; Function Attrs: mustprogress nounwind uwtable
define linkonce_odr hidden void @_ZNSt22_Optional_payload_baseIN6google8protobuf2io7Printer14SourceLocationEEC2Ev(ptr noundef nonnull align 1 dereferenceable(2) %this) unnamed_addr #5 comdat align 2 {
entry:
  %this.addr = alloca ptr, align 8
  store ptr %this, ptr %this.addr, align 8
  %this1 = load ptr, ptr %this.addr, align 8
  %_M_payload = getelementptr inbounds %"struct.std::_Optional_payload_base", ptr %this1, i32 0, i32 0
  call void @_ZNSt22_Optional_payload_baseIN6google8protobuf2io7Printer14SourceLocationEE8_StorageIS4_Lb1EEC2Ev(ptr noundef nonnull align 1 dereferenceable(1) %_M_payload) #3
  %_M_engaged = getelementptr inbounds %"struct.std::_Optional_payload_base", ptr %this1, i32 0, i32 1
  store i8 0, ptr %_M_engaged, align 1
  ret void
}

; Function Attrs: mustprogress nounwind uwtable
define linkonce_odr hidden void @_ZNSt17_Optional_payloadIN6google8protobuf2io7Printer14SourceLocationELb1ELb1ELb1EEC2Ev(ptr noundef nonnull align 1 dereferenceable(2) %this) unnamed_addr #5 comdat align 2 {
entry:
  %this.addr = alloca ptr, align 8
  store ptr %this, ptr %this.addr, align 8
  %this1 = load ptr, ptr %this.addr, align 8
  call void @_ZNSt22_Optional_payload_baseIN6google8protobuf2io7Printer14SourceLocationEEC2Ev(ptr noundef nonnull align 1 dereferenceable(2) %this1) #3
  ret void
}

; Function Attrs: mustprogress nounwind uwtable
define linkonce_odr hidden void @_ZNSt14_Optional_baseIN6google8protobuf2io7Printer14SourceLocationELb1ELb1EEC2Ev(ptr noundef nonnull align 1 dereferenceable(2) %this) unnamed_addr #5 comdat align 2 {
entry:
  %this.addr = alloca ptr, align 8
  store ptr %this, ptr %this.addr, align 8
  %this1 = load ptr, ptr %this.addr, align 8
  %_M_payload = getelementptr inbounds %"struct.std::_Optional_base", ptr %this1, i32 0, i32 0
  call void @_ZNSt17_Optional_payloadIN6google8protobuf2io7Printer14SourceLocationELb1ELb1ELb1EEC2Ev(ptr noundef nonnull align 1 dereferenceable(2) %_M_payload) #3
  ret void
}

; Function Attrs: noreturn nounwind uwtable
define linkonce_odr hidden void @__clang_call_terminate(ptr noundef %0) #11 comdat {
  %2 = call ptr @__cxa_begin_catch(ptr %0) #3
  call void @_ZSt9terminatev() #20
  unreachable
}

; Function Attrs: mustprogress nounwind uwtable
define linkonce_odr hidden noundef i64 @_ZNSt11char_traitsIcE6lengthEPKc(ptr noundef %__s) #5 comdat align 2 {
entry:
  %__s.addr = alloca ptr, align 8
  store ptr %__s, ptr %__s.addr, align 8
  %0 = load ptr, ptr %__s.addr, align 8
  %call = call i64 @strlen(ptr noundef %0) #3
  ret i64 %call
}

; Function Attrs: mustprogress nounwind uwtable
define linkonce_odr hidden void @_ZNSt8optionalIN6google8protobuf2io7Printer14SourceLocationEEC2Ev(ptr noundef nonnull align 1 dereferenceable(2) %this) unnamed_addr #5 comdat align 2 {
entry:
  %this.addr = alloca ptr, align 8
  store ptr %this, ptr %this.addr, align 8
  %this1 = load ptr, ptr %this.addr, align 8
  call void @_ZNSt14_Optional_baseIN6google8protobuf2io7Printer14SourceLocationELb1ELb1EEC2Ev(ptr noundef nonnull align 1 dereferenceable(2) %this1) #3
  ret void
}

; Function Attrs: mustprogress nounwind uwtable
define linkonce_odr hidden void @_ZNSt17basic_string_viewIcSt11char_traitsIcEEC2EPKc(ptr noundef nonnull align 8 dereferenceable(16) %this, ptr noundef nonnull %__str) unnamed_addr #5 comdat align 2 personality ptr @__gxx_personality_v0 {
entry:
  %this.addr = alloca ptr, align 8
  %__str.addr = alloca ptr, align 8
  store ptr %this, ptr %this.addr, align 8
  store ptr %__str, ptr %__str.addr, align 8
  %this1 = load ptr, ptr %this.addr, align 8
  %_M_len = getelementptr inbounds %"class.std::basic_string_view", ptr %this1, i32 0, i32 0
  %0 = load ptr, ptr %__str.addr, align 8
  %call = invoke noundef i64 @_ZNSt11char_traitsIcE6lengthEPKc(ptr noundef %0)
          to label %invoke.cont unwind label %terminate.lpad

invoke.cont:                                      ; preds = %entry
  store i64 %call, ptr %_M_len, align 8
  %_M_str = getelementptr inbounds %"class.std::basic_string_view", ptr %this1, i32 0, i32 1
  %1 = load ptr, ptr %__str.addr, align 8
  store ptr %1, ptr %_M_str, align 8
  ret void

terminate.lpad:                                   ; preds = %entry
  %2 = landingpad { ptr, i32 }
          catch ptr null
  %3 = extractvalue { ptr, i32 } %2, 0
  call void @__clang_call_terminate(ptr %3) #20
  unreachable
}

; Function Attrs: mustprogress nounwind uwtable
define linkonce_odr hidden void @_ZN6google8protobuf2io7Printer12PrintOptionsC2Ev(ptr noundef nonnull align 1 dereferenceable(9) %this) unnamed_addr #5 comdat align 2 {
entry:
  %this.addr = alloca ptr, align 8
  store ptr %this, ptr %this.addr, align 8
  %this1 = load ptr, ptr %this.addr, align 8
  %loc = getelementptr inbounds %"struct.google::protobuf::io::Printer::PrintOptions", ptr %this1, i32 0, i32 0
  call void @_ZNSt8optionalIN6google8protobuf2io7Printer14SourceLocationEEC2Ev(ptr noundef nonnull align 1 dereferenceable(2) %loc) #3
  %checks_are_debug_only = getelementptr inbounds %"struct.google::protobuf::io::Printer::PrintOptions", ptr %this1, i32 0, i32 1
  store i8 0, ptr %checks_are_debug_only, align 1
  %use_substitution_map = getelementptr inbounds %"struct.google::protobuf::io::Printer::PrintOptions", ptr %this1, i32 0, i32 2
  store i8 0, ptr %use_substitution_map, align 1
  %use_curly_brace_substitutions = getelementptr inbounds %"struct.google::protobuf::io::Printer::PrintOptions", ptr %this1, i32 0, i32 3
  store i8 0, ptr %use_curly_brace_substitutions, align 1
  %allow_digit_substitutions = getelementptr inbounds %"struct.google::protobuf::io::Printer::PrintOptions", ptr %this1, i32 0, i32 4
  store i8 1, ptr %allow_digit_substitutions, align 1
  %strip_spaces_around_vars = getelementptr inbounds %"struct.google::protobuf::io::Printer::PrintOptions", ptr %this1, i32 0, i32 5
  store i8 1, ptr %strip_spaces_around_vars, align 1
  %strip_raw_string_indentation = getelementptr inbounds %"struct.google::protobuf::io::Printer::PrintOptions", ptr %this1, i32 0, i32 6
  store i8 0, ptr %strip_raw_string_indentation, align 1
  %use_annotation_frames = getelementptr inbounds %"struct.google::protobuf::io::Printer::PrintOptions", ptr %this1, i32 0, i32 7
  store i8 1, ptr %use_annotation_frames, align 1
  ret void
}

; Function Attrs: mustprogress uwtable
define void @_ZN6google8protobuf2io7Printer7OutdentEv(ptr noundef nonnull align 8 dereferenceable(256) %this) #4 align 2 {
entry:
  %this.addr = alloca ptr, align 8
  %opts = alloca %"struct.google::protobuf::io::Printer::PrintOptions", align 1
  %agg.tmp = alloca %"struct.google::protobuf::io::Printer::PrintOptions", align 1
  %agg.tmp2 = alloca %"class.std::basic_string_view", align 8
  %agg.tmp.coerce = alloca { i64, i8 }, align 1
  store ptr %this, ptr %this.addr, align 8
  %this1 = load ptr, ptr %this.addr, align 8
  call void @_ZN6google8protobuf2io7Printer12PrintOptionsC2Ev(ptr noundef nonnull align 1 dereferenceable(9) %opts) #3
  %checks_are_debug_only = getelementptr inbounds %"struct.google::protobuf::io::Printer::PrintOptions", ptr %opts, i32 0, i32 1
  store i8 1, ptr %checks_are_debug_only, align 1
  %indent_ = getelementptr inbounds %"class.google::protobuf::io::Printer", ptr %this1, i32 0, i32 2
  %0 = load i64, ptr %indent_, align 8
  %options_ = getelementptr inbounds %"class.google::protobuf::io::Printer", ptr %this1, i32 0, i32 1
  %spaces_per_indent = getelementptr inbounds %"struct.google::protobuf::io::Printer::Options", ptr %options_, i32 0, i32 5
  %1 = load i64, ptr %spaces_per_indent, align 8
  %cmp = icmp uge i64 %0, %1
  call void @llvm.memcpy.p0.p0.i64(ptr align 1 %agg.tmp, ptr align 1 %opts, i64 9, i1 false)
  call void @_ZNSt17basic_string_viewIcSt11char_traitsIcEEC2EPKc(ptr noundef nonnull align 8 dereferenceable(16) %agg.tmp2, ptr noundef @.str.9) #3
  call void @llvm.memcpy.p0.p0.i64(ptr align 1 %agg.tmp.coerce, ptr align 1 %agg.tmp, i64 9, i1 false)
  %2 = getelementptr inbounds { i64, i8 }, ptr %agg.tmp.coerce, i32 0, i32 0
  %3 = load i64, ptr %2, align 1
  %4 = getelementptr inbounds { i64, i8 }, ptr %agg.tmp.coerce, i32 0, i32 1
  %5 = load i8, ptr %4, align 1
  %6 = getelementptr inbounds { i64, ptr }, ptr %agg.tmp2, i32 0, i32 0
  %7 = load i64, ptr %6, align 8
  %8 = getelementptr inbounds { i64, ptr }, ptr %agg.tmp2, i32 0, i32 1
  %9 = load ptr, ptr %8, align 8
  %call = call noundef zeroext i1 @_ZN6google8protobuf2io7Printer8ValidateEbNS2_12PrintOptionsESt17basic_string_viewIcSt11char_traitsIcEE(i1 noundef zeroext %cmp, i64 %3, i8 %5, i64 %7, ptr %9)
  br i1 %call, label %if.end, label %if.then

if.then:                                          ; preds = %entry
  br label %return

if.end:                                           ; preds = %entry
  %options_3 = getelementptr inbounds %"class.google::protobuf::io::Printer", ptr %this1, i32 0, i32 1
  %spaces_per_indent4 = getelementptr inbounds %"struct.google::protobuf::io::Printer::Options", ptr %options_3, i32 0, i32 5
  %10 = load i64, ptr %spaces_per_indent4, align 8
  %indent_5 = getelementptr inbounds %"class.google::protobuf::io::Printer", ptr %this1, i32 0, i32 2
  %11 = load i64, ptr %indent_5, align 8
  %sub = sub i64 %11, %10
  store i64 %sub, ptr %indent_5, align 8
  br label %return

return:                                           ; preds = %if.end, %if.then
  ret void
}