; Function Attrs: mustprogress uwtable
define void @_ZN6google8protobuf2io7Printer7OutdentEv(ptr nocapture noundef nonnull align 8 dereferenceable(256) %this) local_unnamed_addr #3 align 2 personality ptr @__gxx_personality_v0 {
entry:
  %indent_ = getelementptr inbounds i8, ptr %this, i64 104
  %0 = load i64, ptr %indent_, align 8
  %spaces_per_indent = getelementptr inbounds i8, ptr %this, i64 88
  %1 = load i64, ptr %spaces_per_indent, align 8
  %cmp = icmp uge i64 %0, %1
  %call = tail call noundef zeroext i1 @_ZN6google8protobuf2io7Printer8ValidateEbNS2_12PrintOptionsESt17basic_string_viewIcSt11char_traitsIcEE(i1 noundef zeroext %cmp, i64 282574488403968, i8 poison, i64 35, ptr nonnull @.str.9)
  br i1 %cmp, label %if.end, label %return

if.end:                                           ; preds = %entry
  %2 = load i64, ptr %spaces_per_indent, align 8
  %3 = load i64, ptr %indent_, align 8
  %sub = sub i64 %3, %2
  store i64 %sub, ptr %indent_, align 8
  br label %return

return:                                           ; preds = %entry, %if.end
  ret void
}